target datalayout = "e-m:e-p270:32:32-p271:32:32-p272:64:64-i64:64-i128:128-f80:128-n8:16:32:64-S128"
target triple = "x86_64-unknown-linux-gnu"

%"class.icu_75::OlsonTimeZone" = type { %"class.icu_75::BasicTimeZone", i16, i16, i16, ptr, ptr, ptr, i16, ptr, ptr, ptr, double, i32, ptr, ptr, ptr, i16, ptr, ptr, i16, ptr, %"struct.icu_75::UInitOnce" }
%"class.icu_75::BasicTimeZone" = type { %"class.icu_75::TimeZone" }
%"class.icu_75::TimeZone" = type { %"class.icu_75::UObject", %"class.icu_75::UnicodeString" }
%"class.icu_75::UObject" = type { ptr }
%"class.icu_75::UnicodeString" = type { %"class.icu_75::Replaceable", %"union.icu_75::UnicodeString::StackBufferOrFields" }
%"class.icu_75::Replaceable" = type { %"class.icu_75::UObject" }
%"union.icu_75::UnicodeString::StackBufferOrFields" = type { %struct.anon.0, [32 x i8] }
%struct.anon.0 = type { i16, i32, i32, ptr }
%"struct.icu_75::UInitOnce" = type { %"struct.std::atomic", i32 }
%"struct.std::atomic" = type { %"struct.std::__atomic_base" }
%"struct.std::__atomic_base" = type { i32 }

; Function Attrs: noreturn nounwind uwtable
define linkonce_odr hidden void @__clang_call_terminate(ptr noundef %0) #4 comdat {
  %2 = call ptr @__cxa_begin_catch(ptr %0) #9
  call void @_ZSt9terminatev() #10
  unreachable
}

; Function Attrs: mustprogress nounwind uwtable
define linkonce_odr noundef i32 @_ZStanSt12memory_orderSt23__memory_order_modifier(i32 noundef %__m, i32 noundef %__mod) #0 comdat {
entry:
  %__m.addr = alloca i32, align 4
  %__mod.addr = alloca i32, align 4
  store i32 %__m, ptr %__m.addr, align 4
  store i32 %__mod, ptr %__mod.addr, align 4
  %0 = load i32, ptr %__m.addr, align 4
  %1 = load i32, ptr %__mod.addr, align 4
  %and = and i32 %0, %1
  ret i32 %and
}

; Function Attrs: mustprogress nounwind uwtable
define linkonce_odr noundef i32 @_ZNSt13__atomic_baseIiEaSEi(ptr noundef nonnull align 4 dereferenceable(4) %this, i32 noundef %__i) #0 comdat align 2 personality ptr @__gxx_personality_v0 {
entry:
  %this.addr.i = alloca ptr, align 8
  %__i.addr.i = alloca i32, align 4
  %__m.addr.i = alloca i32, align 4
  %__b.i = alloca i32, align 4
  %.atomictmp.i = alloca i32, align 4
  %this.addr = alloca ptr, align 8
  %__i.addr = alloca i32, align 4
  store ptr %this, ptr %this.addr, align 8
  store i32 %__i, ptr %__i.addr, align 4
  %this1 = load ptr, ptr %this.addr, align 8
  %0 = load i32, ptr %__i.addr, align 4
  store ptr %this1, ptr %this.addr.i, align 8
  store i32 %0, ptr %__i.addr.i, align 4
  store i32 5, ptr %__m.addr.i, align 4
  %this1.i = load ptr, ptr %this.addr.i, align 8
  %1 = load i32, ptr %__m.addr.i, align 4
  %call.i = invoke noundef i32 @_ZStanSt12memory_orderSt23__memory_order_modifier(i32 noundef %1, i32 noundef 65535)
          to label %invoke.cont.i unwind label %terminate.lpad.i

invoke.cont.i:                                    ; preds = %entry
  store i32 %call.i, ptr %__b.i, align 4
  %2 = load i32, ptr %__m.addr.i, align 4
  %3 = load i32, ptr %__i.addr.i, align 4
  store i32 %3, ptr %.atomictmp.i, align 4
  switch i32 %2, label %monotonic.i [
    i32 3, label %release.i
    i32 5, label %seqcst.i
  ]

monotonic.i:                                      ; preds = %invoke.cont.i
  %4 = load i32, ptr %.atomictmp.i, align 4
  store atomic i32 %4, ptr %this1.i monotonic, align 4
  br label %_ZNSt13__atomic_baseIiE5storeEiSt12memory_order.exit

release.i:                                        ; preds = %invoke.cont.i
  %5 = load i32, ptr %.atomictmp.i, align 4
  store atomic i32 %5, ptr %this1.i release, align 4
  br label %_ZNSt13__atomic_baseIiE5storeEiSt12memory_order.exit

seqcst.i:                                         ; preds = %invoke.cont.i
  %6 = load i32, ptr %.atomictmp.i, align 4
  store atomic i32 %6, ptr %this1.i seq_cst, align 4
  br label %_ZNSt13__atomic_baseIiE5storeEiSt12memory_order.exit

terminate.lpad.i:                                 ; preds = %entry
  %7 = landingpad { ptr, i32 }
          catch ptr null
  %8 = extractvalue { ptr, i32 } %7, 0
  call void @__clang_call_terminate(ptr %8) #10
  unreachable

_ZNSt13__atomic_baseIiE5storeEiSt12memory_order.exit: ; preds = %seqcst.i, %release.i, %monotonic.i
  %9 = load i32, ptr %__i.addr, align 4
  ret i32 %9
}

; Function Attrs: mustprogress nounwind uwtable
define linkonce_odr void @_ZN6icu_759UInitOnce5resetEv(ptr noundef nonnull align 4 dereferenceable(8) %this) #0 comdat align 2 {
entry:
  %this.addr = alloca ptr, align 8
  store ptr %this, ptr %this.addr, align 8
  %this1 = load ptr, ptr %this.addr, align 8
  %fState = getelementptr inbounds %"struct.icu_75::UInitOnce", ptr %this1, i32 0, i32 0
  %call = call noundef i32 @_ZNSt13__atomic_baseIiEaSEi(ptr noundef nonnull align 4 dereferenceable(4) %fState, i32 noundef 0) #9
  ret void
}

; Function Attrs: mustprogress uwtable
define void @_ZN6icu_7513OlsonTimeZone20clearTransitionRulesEv(ptr noundef nonnull align 8 dereferenceable(224) %this) #1 align 2 {
entry:
  %this.addr = alloca ptr, align 8
  store ptr %this, ptr %this.addr, align 8
  %this1 = load ptr, ptr %this.addr, align 8
  %initialRule = getelementptr inbounds %"class.icu_75::OlsonTimeZone", ptr %this1, i32 0, i32 14
  store ptr null, ptr %initialRule, align 8
  %firstTZTransition = getelementptr inbounds %"class.icu_75::OlsonTimeZone", ptr %this1, i32 0, i32 15
  store ptr null, ptr %firstTZTransition, align 8
  %firstFinalTZTransition = getelementptr inbounds %"class.icu_75::OlsonTimeZone", ptr %this1, i32 0, i32 17
  store ptr null, ptr %firstFinalTZTransition, align 8
  %historicRules = getelementptr inbounds %"class.icu_75::OlsonTimeZone", ptr %this1, i32 0, i32 18
  store ptr null, ptr %historicRules, align 8
  %historicRuleCount = getelementptr inbounds %"class.icu_75::OlsonTimeZone", ptr %this1, i32 0, i32 19
  store i16 0, ptr %historicRuleCount, align 8
  %finalZoneWithStartYear = getelementptr inbounds %"class.icu_75::OlsonTimeZone", ptr %this1, i32 0, i32 20
  store ptr null, ptr %finalZoneWithStartYear, align 8
  %firstTZTransitionIdx = getelementptr inbounds %"class.icu_75::OlsonTimeZone", ptr %this1, i32 0, i32 16
  store i16 0, ptr %firstTZTransitionIdx, align 8
  %transitionRulesInitOnce = getelementptr inbounds %"class.icu_75::OlsonTimeZone", ptr %this1, i32 0, i32 21
  call void @_ZN6icu_759UInitOnce5resetEv(ptr noundef nonnull align 4 dereferenceable(8) %transitionRulesInitOnce)
  ret void
}

; Function Attrs: mustprogress nounwind uwtable
define linkonce_odr void @_ZNSt13__atomic_baseIiEC2Ei(ptr noundef nonnull align 4 dereferenceable(4) %this, i32 noundef %__i) unnamed_addr #0 comdat align 2 {
entry:
  %this.addr = alloca ptr, align 8
  %__i.addr = alloca i32, align 4
  store ptr %this, ptr %this.addr, align 8
  store i32 %__i, ptr %__i.addr, align 4
  %this1 = load ptr, ptr %this.addr, align 8
  %_M_i = getelementptr inbounds %"struct.std::__atomic_base", ptr %this1, i32 0, i32 0
  %0 = load i32, ptr %__i.addr, align 4
  store i32 %0, ptr %_M_i, align 4
  ret void
}

; Function Attrs: mustprogress uwtable
define noundef nonnull align 8 dereferenceable(224) ptr @_ZN6icu_7513OlsonTimeZoneaSERKS0_(ptr noundef nonnull align 8 dereferenceable(224) %this, ptr noundef nonnull align 8 dereferenceable(224) %other) #1 align 2 {
entry:
  %retval = alloca ptr, align 8
  %this.addr = alloca ptr, align 8
  %other.addr = alloca ptr, align 8
  store ptr %this, ptr %this.addr, align 8
  store ptr %other, ptr %other.addr, align 8
  %this1 = load ptr, ptr %this.addr, align 8
  %0 = load ptr, ptr %other.addr, align 8
  %cmp = icmp eq ptr %this1, %0
  br i1 %cmp, label %if.then, label %if.end

if.then:                                          ; preds = %entry
  store ptr %this1, ptr %retval, align 8
  br label %return

if.end:                                           ; preds = %entry
  %1 = load ptr, ptr %other.addr, align 8
  %canonicalID = getelementptr inbounds %"class.icu_75::OlsonTimeZone", ptr %1, i32 0, i32 13
  %2 = load ptr, ptr %canonicalID, align 8
  %canonicalID2 = getelementptr inbounds %"class.icu_75::OlsonTimeZone", ptr %this1, i32 0, i32 13
  store ptr %2, ptr %canonicalID2, align 8
  %3 = load ptr, ptr %other.addr, align 8
  %transitionTimesPre32 = getelementptr inbounds %"class.icu_75::OlsonTimeZone", ptr %3, i32 0, i32 4
  %4 = load ptr, ptr %transitionTimesPre32, align 8
  %transitionTimesPre323 = getelementptr inbounds %"class.icu_75::OlsonTimeZone", ptr %this1, i32 0, i32 4
  store ptr %4, ptr %transitionTimesPre323, align 8
  %5 = load ptr, ptr %other.addr, align 8
  %transitionTimes32 = getelementptr inbounds %"class.icu_75::OlsonTimeZone", ptr %5, i32 0, i32 5
  %6 = load ptr, ptr %transitionTimes32, align 8
  %transitionTimes324 = getelementptr inbounds %"class.icu_75::OlsonTimeZone", ptr %this1, i32 0, i32 5
  store ptr %6, ptr %transitionTimes324, align 8
  %7 = load ptr, ptr %other.addr, align 8
  %transitionTimesPost32 = getelementptr inbounds %"class.icu_75::OlsonTimeZone", ptr %7, i32 0, i32 6
  %8 = load ptr, ptr %transitionTimesPost32, align 8
  %transitionTimesPost325 = getelementptr inbounds %"class.icu_75::OlsonTimeZone", ptr %this1, i32 0, i32 6
  store ptr %8, ptr %transitionTimesPost325, align 8
  %9 = load ptr, ptr %other.addr, align 8
  %transitionCountPre32 = getelementptr inbounds %"class.icu_75::OlsonTimeZone", ptr %9, i32 0, i32 1
  %10 = load i16, ptr %transitionCountPre32, align 8
  %transitionCountPre326 = getelementptr inbounds %"class.icu_75::OlsonTimeZone", ptr %this1, i32 0, i32 1
  store i16 %10, ptr %transitionCountPre326, align 8
  %11 = load ptr, ptr %other.addr, align 8
  %transitionCount32 = getelementptr inbounds %"class.icu_75::OlsonTimeZone", ptr %11, i32 0, i32 2
  %12 = load i16, ptr %transitionCount32, align 2
  %transitionCount327 = getelementptr inbounds %"class.icu_75::OlsonTimeZone", ptr %this1, i32 0, i32 2
  store i16 %12, ptr %transitionCount327, align 2
  %13 = load ptr, ptr %other.addr, align 8
  %transitionCountPost32 = getelementptr inbounds %"class.icu_75::OlsonTimeZone", ptr %13, i32 0, i32 3
  %14 = load i16, ptr %transitionCountPost32, align 4
  %transitionCountPost328 = getelementptr inbounds %"class.icu_75::OlsonTimeZone", ptr %this1, i32 0, i32 3
  store i16 %14, ptr %transitionCountPost328, align 4
  %15 = load ptr, ptr %other.addr, align 8
  %typeCount = getelementptr inbounds %"class.icu_75::OlsonTimeZone", ptr %15, i32 0, i32 7
  %16 = load i16, ptr %typeCount, align 8
  %typeCount9 = getelementptr inbounds %"class.icu_75::OlsonTimeZone", ptr %this1, i32 0, i32 7
  store i16 %16, ptr %typeCount9, align 8
  %17 = load ptr, ptr %other.addr, align 8
  %typeOffsets = getelementptr inbounds %"class.icu_75::OlsonTimeZone", ptr %17, i32 0, i32 8
  %18 = load ptr, ptr %typeOffsets, align 8
  %typeOffsets10 = getelementptr inbounds %"class.icu_75::OlsonTimeZone", ptr %this1, i32 0, i32 8
  store ptr %18, ptr %typeOffsets10, align 8
  %19 = load ptr, ptr %other.addr, align 8
  %typeMapData = getelementptr inbounds %"class.icu_75::OlsonTimeZone", ptr %19, i32 0, i32 9
  %20 = load ptr, ptr %typeMapData, align 8
  %typeMapData11 = getelementptr inbounds %"class.icu_75::OlsonTimeZone", ptr %this1, i32 0, i32 9
  store ptr %20, ptr %typeMapData11, align 8
  %finalZone = getelementptr inbounds %"class.icu_75::OlsonTimeZone", ptr %this1, i32 0, i32 10
  %21 = load ptr, ptr %finalZone, align 8
  %isnull = icmp eq ptr %21, null
  br i1 %isnull, label %delete.end, label %delete.notnull

delete.notnull:                                   ; preds = %if.end
  %vtable = load ptr, ptr %21, align 8
  %vfn = getelementptr inbounds ptr, ptr %vtable, i64 1
  %22 = load ptr, ptr %vfn, align 8
  call void %22(ptr noundef nonnull align 8 dereferenceable(160) %21) #9
  br label %delete.end

delete.end:                                       ; preds = %delete.notnull, %if.end
  %23 = load ptr, ptr %other.addr, align 8
  %finalZone12 = getelementptr inbounds %"class.icu_75::OlsonTimeZone", ptr %23, i32 0, i32 10
  %24 = load ptr, ptr %finalZone12, align 8
  %cmp13 = icmp ne ptr %24, null
  br i1 %cmp13, label %cond.true, label %cond.false

cond.true:                                        ; preds = %delete.end
  %25 = load ptr, ptr %other.addr, align 8
  %finalZone14 = getelementptr inbounds %"class.icu_75::OlsonTimeZone", ptr %25, i32 0, i32 10
  %26 = load ptr, ptr %finalZone14, align 8
  %vtable15 = load ptr, ptr %26, align 8
  %vfn16 = getelementptr inbounds ptr, ptr %vtable15, i64 12
  %27 = load ptr, ptr %vfn16, align 8
  %call = call noundef ptr %27(ptr noundef nonnull align 8 dereferenceable(160) %26)
  br label %cond.end

cond.false:                                       ; preds = %delete.end
  br label %cond.end

cond.end:                                         ; preds = %cond.false, %cond.true
  %cond = phi ptr [ %call, %cond.true ], [ null, %cond.false ]
  %finalZone17 = getelementptr inbounds %"class.icu_75::OlsonTimeZone", ptr %this1, i32 0, i32 10
  store ptr %cond, ptr %finalZone17, align 8
  %28 = load ptr, ptr %other.addr, align 8
  %finalStartYear = getelementptr inbounds %"class.icu_75::OlsonTimeZone", ptr %28, i32 0, i32 12
  %29 = load i32, ptr %finalStartYear, align 8
  %finalStartYear18 = getelementptr inbounds %"class.icu_75::OlsonTimeZone", ptr %this1, i32 0, i32 12
  store i32 %29, ptr %finalStartYear18, align 8
  %30 = load ptr, ptr %other.addr, align 8
  %finalStartMillis = getelementptr inbounds %"class.icu_75::OlsonTimeZone", ptr %30, i32 0, i32 11
  %31 = load double, ptr %finalStartMillis, align 8
  %finalStartMillis19 = getelementptr inbounds %"class.icu_75::OlsonTimeZone", ptr %this1, i32 0, i32 11
  store double %31, ptr %finalStartMillis19, align 8
  call void @_ZN6icu_7513OlsonTimeZone20clearTransitionRulesEv(ptr noundef nonnull align 8 dereferenceable(224) %this1)
  store ptr %this1, ptr %retval, align 8
  br label %return

return:                                           ; preds = %cond.end, %if.then
  %32 = load ptr, ptr %retval, align 8
  ret ptr %32
}

; Function Attrs: mustprogress nounwind uwtable
define linkonce_odr void @_ZNSt6atomicIiEC2Ei(ptr noundef nonnull align 4 dereferenceable(4) %this, i32 noundef %__i) unnamed_addr #0 comdat align 2 {
entry:
  %this.addr = alloca ptr, align 8
  %__i.addr = alloca i32, align 4
  store ptr %this, ptr %this.addr, align 8
  store i32 %__i, ptr %__i.addr, align 4
  %this1 = load ptr, ptr %this.addr, align 8
  %0 = load i32, ptr %__i.addr, align 4
  call void @_ZNSt13__atomic_baseIiEC2Ei(ptr noundef nonnull align 4 dereferenceable(4) %this1, i32 noundef %0) #9
  ret void
}

; Function Attrs: mustprogress uwtable
define void @_ZN6icu_7513OlsonTimeZoneC2ERKS0_(ptr noundef nonnull align 8 dereferenceable(224) %this, ptr noundef nonnull align 8 dereferenceable(224) %other) unnamed_addr #1 align 2 personality ptr @__gxx_personality_v0 {
entry:
  %this.addr = alloca ptr, align 8
  %other.addr = alloca ptr, align 8
  %exn.slot = alloca ptr, align 8
  %ehselector.slot = alloca i32, align 4
  store ptr %this, ptr %this.addr, align 8
  store ptr %other, ptr %other.addr, align 8
  %this1 = load ptr, ptr %this.addr, align 8
  %0 = load ptr, ptr %other.addr, align 8
  call void @_ZN6icu_7513BasicTimeZoneC2ERKS0_(ptr noundef nonnull align 8 dereferenceable(72) %this1, ptr noundef nonnull align 8 dereferenceable(72) %0)
  store ptr getelementptr inbounds ({ [23 x ptr] }, ptr @_ZTVN6icu_7513OlsonTimeZoneE, i32 0, i32 0, i32 2), ptr %this1, align 8
  %finalZone = getelementptr inbounds %"class.icu_75::OlsonTimeZone", ptr %this1, i32 0, i32 10
  store ptr null, ptr %finalZone, align 8
  %transitionRulesInitOnce = getelementptr inbounds %"class.icu_75::OlsonTimeZone", ptr %this1, i32 0, i32 21
  %fState = getelementptr inbounds %"struct.icu_75::UInitOnce", ptr %transitionRulesInitOnce, i32 0, i32 0
  call void @_ZNSt6atomicIiEC2Ei(ptr noundef nonnull align 4 dereferenceable(4) %fState, i32 noundef 0) #9
  %fErrCode = getelementptr inbounds %"struct.icu_75::UInitOnce", ptr %transitionRulesInitOnce, i32 0, i32 1
  store i32 0, ptr %fErrCode, align 4
  %1 = load ptr, ptr %other.addr, align 8
  %call = invoke noundef nonnull align 8 dereferenceable(224) ptr @_ZN6icu_7513OlsonTimeZoneaSERKS0_(ptr noundef nonnull align 8 dereferenceable(224) %this1, ptr noundef nonnull align 8 dereferenceable(224) %1)
          to label %invoke.cont unwind label %lpad

invoke.cont:                                      ; preds = %entry
  ret void

lpad:                                             ; preds = %entry
  %2 = landingpad { ptr, i32 }
          cleanup
  %3 = extractvalue { ptr, i32 } %2, 0
  store ptr %3, ptr %exn.slot, align 8
  %4 = extractvalue { ptr, i32 } %2, 1
  store i32 %4, ptr %ehselector.slot, align 4
  call void @_ZN6icu_7513BasicTimeZoneD2Ev(ptr noundef nonnull align 8 dereferenceable(72) %this1) #9
  br label %eh.resume

eh.resume:                                        ; preds = %lpad
  %exn = load ptr, ptr %exn.slot, align 8
  %sel = load i32, ptr %ehselector.slot, align 4
  %lpad.val = insertvalue { ptr, i32 } poison, ptr %exn, 0
  %lpad.val2 = insertvalue { ptr, i32 } %lpad.val, i32 %sel, 1
  resume { ptr, i32 } %lpad.val2
}