; Function Attrs: mustprogress uwtable
define void @_ZN6icu_7513OlsonTimeZoneC2ERKS0_(ptr noundef nonnull align 8 dereferenceable(224) %this, ptr noundef nonnull align 8 dereferenceable(224) %other) unnamed_addr #2 align 2 personality ptr @__gxx_personality_v0 {
entry:
  tail call void @_ZN6icu_7513BasicTimeZoneC2ERKS0_(ptr noundef nonnull align 8 dereferenceable(72) %this, ptr noundef nonnull align 8 dereferenceable(72) %other)
  store ptr getelementptr inbounds ({ [23 x ptr] }, ptr @_ZTVN6icu_7513OlsonTimeZoneE, i64 0, i32 0, i64 2), ptr %this, align 8
  %finalZone = getelementptr inbounds i8, ptr %this, i64 128
  store ptr null, ptr %finalZone, align 8
  %transitionRulesInitOnce = getelementptr inbounds i8, ptr %this, i64 216
  store i32 0, ptr %transitionRulesInitOnce, align 8
  %fErrCode = getelementptr inbounds i8, ptr %this, i64 220
  store i32 0, ptr %fErrCode, align 4
  %cmp.i = icmp eq ptr %this, %other
  br i1 %cmp.i, label %invoke.cont, label %delete.end.i

delete.end.i:                                     ; preds = %entry
  %canonicalID.i = getelementptr inbounds i8, ptr %other, i64 152
  %0 = load ptr, ptr %canonicalID.i, align 8
  %canonicalID2.i = getelementptr inbounds i8, ptr %this, i64 152
  store ptr %0, ptr %canonicalID2.i, align 8
  %transitionTimesPre32.i = getelementptr inbounds i8, ptr %other, i64 80
  %1 = load ptr, ptr %transitionTimesPre32.i, align 8
  %transitionTimesPre323.i = getelementptr inbounds i8, ptr %this, i64 80
  store ptr %1, ptr %transitionTimesPre323.i, align 8
  %transitionTimes32.i = getelementptr inbounds i8, ptr %other, i64 88
  %2 = load ptr, ptr %transitionTimes32.i, align 8
  %transitionTimes324.i = getelementptr inbounds i8, ptr %this, i64 88
  store ptr %2, ptr %transitionTimes324.i, align 8
  %transitionTimesPost32.i = getelementptr inbounds i8, ptr %other, i64 96
  %3 = load ptr, ptr %transitionTimesPost32.i, align 8
  %transitionTimesPost325.i = getelementptr inbounds i8, ptr %this, i64 96
  store ptr %3, ptr %transitionTimesPost325.i, align 8
  %transitionCountPre32.i = getelementptr inbounds i8, ptr %other, i64 72
  %4 = load i16, ptr %transitionCountPre32.i, align 8
  %transitionCountPre326.i = getelementptr inbounds i8, ptr %this, i64 72
  store i16 %4, ptr %transitionCountPre326.i, align 8
  %transitionCount32.i = getelementptr inbounds i8, ptr %other, i64 74
  %5 = load i16, ptr %transitionCount32.i, align 2
  %transitionCount327.i = getelementptr inbounds i8, ptr %this, i64 74
  store i16 %5, ptr %transitionCount327.i, align 2
  %transitionCountPost32.i = getelementptr inbounds i8, ptr %other, i64 76
  %6 = load i16, ptr %transitionCountPost32.i, align 4
  %transitionCountPost328.i = getelementptr inbounds i8, ptr %this, i64 76
  store i16 %6, ptr %transitionCountPost328.i, align 4
  %typeCount.i = getelementptr inbounds i8, ptr %other, i64 104
  %7 = load i16, ptr %typeCount.i, align 8
  %typeCount9.i = getelementptr inbounds i8, ptr %this, i64 104
  store i16 %7, ptr %typeCount9.i, align 8
  %typeOffsets.i = getelementptr inbounds i8, ptr %other, i64 112
  %8 = load ptr, ptr %typeOffsets.i, align 8
  %typeOffsets10.i = getelementptr inbounds i8, ptr %this, i64 112
  store ptr %8, ptr %typeOffsets10.i, align 8
  %typeMapData.i = getelementptr inbounds i8, ptr %other, i64 120
  %9 = load ptr, ptr %typeMapData.i, align 8
  %typeMapData11.i = getelementptr inbounds i8, ptr %this, i64 120
  store ptr %9, ptr %typeMapData11.i, align 8
  %finalZone12.i = getelementptr inbounds i8, ptr %other, i64 128
  %10 = load ptr, ptr %finalZone12.i, align 8
  %cmp13.not.i = icmp eq ptr %10, null
  br i1 %cmp13.not.i, label %cond.end.i, label %cond.true.i

cond.true.i:                                      ; preds = %delete.end.i
  %vtable15.i = load ptr, ptr %10, align 8
  %vfn16.i = getelementptr inbounds i8, ptr %vtable15.i, i64 96
  %11 = load ptr, ptr %vfn16.i, align 8
  %call.i2 = invoke noundef ptr %11(ptr noundef nonnull align 8 dereferenceable(160) %10)
          to label %cond.end.i unwind label %lpad

cond.end.i:                                       ; preds = %cond.true.i, %delete.end.i
  %cond.i = phi ptr [ null, %delete.end.i ], [ %call.i2, %cond.true.i ]
  store ptr %cond.i, ptr %finalZone, align 8
  %finalStartYear.i = getelementptr inbounds i8, ptr %other, i64 144
  %12 = load i32, ptr %finalStartYear.i, align 8
  %finalStartYear18.i = getelementptr inbounds i8, ptr %this, i64 144
  store i32 %12, ptr %finalStartYear18.i, align 8
  %finalStartMillis.i = getelementptr inbounds i8, ptr %other, i64 136
  %13 = load double, ptr %finalStartMillis.i, align 8
  %finalStartMillis19.i = getelementptr inbounds i8, ptr %this, i64 136
  store double %13, ptr %finalStartMillis19.i, align 8
  %initialRule.i.i = getelementptr inbounds i8, ptr %this, i64 160
  %firstFinalTZTransition.i.i = getelementptr inbounds i8, ptr %this, i64 184
  %finalZoneWithStartYear.i.i = getelementptr inbounds i8, ptr %this, i64 208
  store ptr null, ptr %finalZoneWithStartYear.i.i, align 8
  tail call void @llvm.memset.p0.i64(ptr noundef nonnull align 8 dereferenceable(18) %initialRule.i.i, i8 0, i64 18, i1 false)
  tail call void @llvm.memset.p0.i64(ptr noundef nonnull align 8 dereferenceable(18) %firstFinalTZTransition.i.i, i8 0, i64 18, i1 false)
  store atomic i32 0, ptr %transitionRulesInitOnce seq_cst, align 8
  br label %invoke.cont

invoke.cont:                                      ; preds = %cond.end.i, %entry
  ret void

lpad:                                             ; preds = %cond.true.i
  %14 = landingpad { ptr, i32 }
          cleanup
  tail call void @_ZN6icu_7513BasicTimeZoneD2Ev(ptr noundef nonnull align 8 dereferenceable(72) %this) #16
  resume { ptr, i32 } %14
}